target datalayout = "e-m:e-p270:32:32-p271:32:32-p272:64:64-i64:64-i128:128-f80:128-n8:16:32:64-S128"
target triple = "x86_64-pc-linux-gnu"

; Function Attrs: nounwind uwtable
define dso_local ptr @slurm_xrecalloc(ptr noundef %0, i64 noundef %1, i64 noundef %2, i1 noundef zeroext %3, i1 noundef zeroext %4, ptr noundef %5, i32 noundef %6, ptr noundef %7) #0 {
  %9 = alloca ptr, align 8
  %10 = alloca ptr, align 8
  %11 = alloca i64, align 8
  %12 = alloca i64, align 8
  %13 = alloca i8, align 1
  %14 = alloca i8, align 1
  %15 = alloca ptr, align 8
  %16 = alloca i32, align 4
  %17 = alloca ptr, align 8
  %18 = alloca i64, align 8
  %19 = alloca i64, align 8
  %20 = alloca ptr, align 8
  %21 = alloca i32, align 4
  %22 = alloca i64, align 8
  %23 = alloca ptr, align 8
  store ptr %0, ptr %10, align 8
  store i64 %1, ptr %11, align 8
  store i64 %2, ptr %12, align 8
  %24 = zext i1 %3 to i8
  store i8 %24, ptr %13, align 1
  %25 = zext i1 %4 to i8
  store i8 %25, ptr %14, align 1
  store ptr %5, ptr %15, align 8
  store i32 %6, ptr %16, align 4
  store ptr %7, ptr %17, align 8
  call void @llvm.lifetime.start.p0(i64 8, ptr %18) #9
  call void @llvm.lifetime.start.p0(i64 8, ptr %19) #9
  call void @llvm.lifetime.start.p0(i64 8, ptr %20) #9
  %26 = load i64, ptr %12, align 8
  %27 = icmp ne i64 %26, 0
  br i1 %27, label %28, label %31

28:                                               ; preds = %8
  %29 = load i64, ptr %11, align 8
  %30 = icmp ne i64 %29, 0
  br i1 %30, label %32, label %31

31:                                               ; preds = %28, %8
  store ptr null, ptr %9, align 8
  store i32 1, ptr %21, align 4
  br label %118

32:                                               ; preds = %28
  %33 = load i64, ptr %11, align 8
  %34 = icmp ne i64 %33, 1
  br i1 %34, label %35, label %42

35:                                               ; preds = %32
  %36 = load i64, ptr %11, align 8
  %37 = load i64, ptr %12, align 8
  %38 = udiv i64 -1, %37
  %39 = udiv i64 %38, 4
  %40 = icmp ugt i64 %36, %39
  br i1 %40, label %41, label %42

41:                                               ; preds = %35
  br label %110

42:                                               ; preds = %35, %32
  %43 = load i64, ptr %11, align 8
  %44 = load i64, ptr %12, align 8
  %45 = mul i64 %43, %44
  store i64 %45, ptr %19, align 8
  %46 = load i64, ptr %19, align 8
  %47 = add i64 %46, 16
  store i64 %47, ptr %18, align 8
  %48 = load ptr, ptr %10, align 8
  %49 = load ptr, ptr %48, align 8
  %50 = icmp ne ptr %49, null
  br i1 %50, label %51, label %85

51:                                               ; preds = %42
  call void @llvm.lifetime.start.p0(i64 8, ptr %22) #9
  %52 = load ptr, ptr %10, align 8
  %53 = load ptr, ptr %52, align 8
  %54 = getelementptr inbounds i64, ptr %53, i64 -2
  store ptr %54, ptr %20, align 8
  %55 = load ptr, ptr %20, align 8
  %56 = getelementptr inbounds i64, ptr %55, i64 1
  %57 = load i64, ptr %56, align 8
  store i64 %57, ptr %22, align 8
  %58 = load ptr, ptr %20, align 8
  %59 = load i64, ptr %18, align 8
  %60 = call ptr @realloc(ptr noundef %58, i64 noundef %59) #13
  store ptr %60, ptr %20, align 8
  %61 = load ptr, ptr %20, align 8
  %62 = icmp eq ptr %61, null
  br i1 %62, label %63, label %64

63:                                               ; preds = %51
  store i32 2, ptr %21, align 4
  br label %82

64:                                               ; preds = %51
  %65 = load i64, ptr %22, align 8
  %66 = load i64, ptr %19, align 8
  %67 = icmp ult i64 %65, %66
  br i1 %67, label %68, label %81

68:                                               ; preds = %64
  call void @llvm.lifetime.start.p0(i64 8, ptr %23) #9
  %69 = load ptr, ptr %20, align 8
  %70 = getelementptr inbounds i64, ptr %69, i64 2
  %71 = load i64, ptr %22, align 8
  %72 = getelementptr inbounds nuw i8, ptr %70, i64 %71
  store ptr %72, ptr %23, align 8
  %73 = load i8, ptr %13, align 1, !range !8, !noundef !9
  %74 = trunc i8 %73 to i1
  br i1 %74, label %75, label %80

75:                                               ; preds = %68
  %76 = load ptr, ptr %23, align 8
  %77 = load i64, ptr %19, align 8
  %78 = load i64, ptr %22, align 8
  %79 = sub i64 %77, %78
  call void @llvm.memset.p0.i64(ptr align 1 %76, i8 0, i64 %79, i1 false)
  br label %80

80:                                               ; preds = %75, %68
  call void @llvm.lifetime.end.p0(i64 8, ptr %23) #9
  br label %81

81:                                               ; preds = %80, %64
  store i32 0, ptr %21, align 4
  br label %82

82:                                               ; preds = %63, %81
  call void @llvm.lifetime.end.p0(i64 8, ptr %22) #9
  %83 = load i32, ptr %21, align 4
  switch i32 %83, label %118 [
    i32 0, label %84
    i32 2, label %110
  ]

84:                                               ; preds = %82
  br label %101

85:                                               ; preds = %42
  %86 = load i8, ptr %13, align 1, !range !8, !noundef !9
  %87 = trunc i8 %86 to i1
  br i1 %87, label %88, label %91

88:                                               ; preds = %85
  %89 = load i64, ptr %18, align 8
  %90 = call noalias ptr @calloc(i64 noundef 1, i64 noundef %89) #11
  store ptr %90, ptr %20, align 8
  br label %94

91:                                               ; preds = %85
  %92 = load i64, ptr %18, align 8
  %93 = call noalias ptr @malloc(i64 noundef %92) #12
  store ptr %93, ptr %20, align 8
  br label %94

94:                                               ; preds = %91, %88
  %95 = load ptr, ptr %20, align 8
  %96 = icmp eq ptr %95, null
  br i1 %96, label %97, label %98

97:                                               ; preds = %94
  br label %110

98:                                               ; preds = %94
  %99 = load ptr, ptr %20, align 8
  %100 = getelementptr inbounds i64, ptr %99, i64 0
  store i64 66, ptr %100, align 8
  br label %101

101:                                              ; preds = %98, %84
  %102 = load i64, ptr %19, align 8
  %103 = load ptr, ptr %20, align 8
  %104 = getelementptr inbounds i64, ptr %103, i64 1
  store i64 %102, ptr %104, align 8
  %105 = load ptr, ptr %20, align 8
  %106 = getelementptr inbounds i64, ptr %105, i64 2
  %107 = load ptr, ptr %10, align 8
  store ptr %106, ptr %107, align 8
  %108 = load ptr, ptr %10, align 8
  %109 = load ptr, ptr %108, align 8
  store ptr %109, ptr %9, align 8
  store i32 1, ptr %21, align 4
  br label %118

110:                                              ; preds = %82, %97, %41
  %111 = load i8, ptr %14, align 1, !range !8, !noundef !9
  %112 = trunc i8 %111 to i1
  br i1 %112, label %113, label %114

113:                                              ; preds = %110
  store ptr null, ptr %9, align 8
  store i32 1, ptr %21, align 4
  br label %118

114:                                              ; preds = %110
  %115 = load ptr, ptr %15, align 8
  %116 = load i32, ptr %16, align 4
  %117 = load ptr, ptr %17, align 8
  call void @log_oom(ptr noundef %115, i32 noundef %116, ptr noundef %117)
  call void @abort() #10
  unreachable

118:                                              ; preds = %113, %101, %82, %31
  call void @llvm.lifetime.end.p0(i64 8, ptr %20) #9
  call void @llvm.lifetime.end.p0(i64 8, ptr %19) #9
  call void @llvm.lifetime.end.p0(i64 8, ptr %18) #9
  %119 = load ptr, ptr %9, align 8
  ret ptr %119
}