; Function Attrs: nounwind uwtable
define dso_local ptr @slurm_xrecalloc(ptr noundef captures(none) %0, i64 noundef %1, i64 noundef %2, i1 noundef zeroext %3, i1 noundef zeroext %4, ptr noundef %5, i32 noundef %6, ptr noundef %7) local_unnamed_addr #2 {
  %9 = icmp ne i64 %2, 0
  %10 = icmp ne i64 %1, 0
  %or.cond = and i1 %10, %9
  br i1 %or.cond, label %11, label %44

11:                                               ; preds = %8
  %.not = icmp eq i64 %1, 1
  br i1 %.not, label %16, label %12

12:                                               ; preds = %11
  %13 = udiv i64 -1, %2
  %14 = lshr i64 %13, 2
  %15 = icmp ugt i64 %1, %14
  br i1 %15, label %42, label %16

16:                                               ; preds = %12, %11
  %17 = mul i64 %2, %1
  %18 = add i64 %17, 16
  %19 = load ptr, ptr %0, align 8
  %.not46 = icmp eq ptr %19, null
  br i1 %.not46, label %32, label %20

20:                                               ; preds = %16
  %21 = getelementptr inbounds i8, ptr %19, i64 -16
  %22 = getelementptr inbounds i8, ptr %19, i64 -8
  %23 = load i64, ptr %22, align 8
  %24 = tail call ptr @realloc(ptr noundef nonnull %21, i64 noundef %18) #15
  %25 = icmp eq ptr %24, null
  br i1 %25, label %42, label %26

26:                                               ; preds = %20
  %27 = icmp ult i64 %23, %17
  %brmerge.not = and i1 %3, %27
  br i1 %brmerge.not, label %28, label %.thread

28:                                               ; preds = %26
  %29 = getelementptr inbounds nuw i8, ptr %24, i64 16
  %30 = getelementptr inbounds nuw i8, ptr %29, i64 %23
  %31 = sub nuw i64 %17, %23
  tail call void @llvm.memset.p0.i64(ptr nonnull align 1 %30, i8 0, i64 %31, i1 false)
  br label %.thread

32:                                               ; preds = %16
  br i1 %3, label %33, label %35

33:                                               ; preds = %32
  %34 = tail call noalias ptr @calloc(i64 noundef 1, i64 noundef %18) #13
  br label %37

35:                                               ; preds = %32
  %36 = tail call noalias ptr @malloc(i64 noundef %18) #14
  br label %37

37:                                               ; preds = %35, %33
  %.1 = phi ptr [ %34, %33 ], [ %36, %35 ]
  %38 = icmp eq ptr %.1, null
  br i1 %38, label %42, label %39

39:                                               ; preds = %37
  store i64 66, ptr %.1, align 8
  br label %.thread

.thread:                                          ; preds = %26, %28, %39
  %.038 = phi ptr [ %.1, %39 ], [ %24, %28 ], [ %24, %26 ]
  %40 = getelementptr inbounds nuw i8, ptr %.038, i64 8
  store i64 %17, ptr %40, align 8
  %41 = getelementptr inbounds nuw i8, ptr %.038, i64 16
  store ptr %41, ptr %0, align 8
  br label %44

42:                                               ; preds = %20, %37, %12
  br i1 %4, label %44, label %43

43:                                               ; preds = %42
  tail call void @log_oom(ptr noundef %5, i32 noundef %6, ptr noundef %7) #11
  tail call void @abort() #12
  unreachable

44:                                               ; preds = %42, %8, %.thread
  %.0 = phi ptr [ %41, %.thread ], [ null, %8 ], [ null, %42 ]
  ret ptr %.0
}